; Function Attrs: nounwind uwtable
define ptr @Supp_Compute64Pairs(ptr noundef readonly captures(none) %0, ptr noundef readonly captures(none) %1) local_unnamed_addr #3 {
  %3 = getelementptr inbounds nuw i8, ptr %0, i64 200
  %4 = load ptr, ptr %3, align 8, !tbaa !87
  %5 = getelementptr inbounds nuw i8, ptr %4, i64 4
  store i32 0, ptr %5, align 4, !tbaa !30
  %6 = getelementptr i8, ptr %1, i64 4
  %7 = getelementptr i8, ptr %1, i64 8
  br label %8

8:                                                ; preds = %2, %Vec_IntPush.exit
  %.010 = phi i32 [ 0, %2 ], [ %48, %Vec_IntPush.exit ]
  %9 = tail call i32 @Abc_Random(i32 noundef 0) #32
  %10 = and i32 %9, 16777215
  %.val = load i32, ptr %6, align 4, !tbaa !30
  %11 = srem i32 %10, %.val
  %.val9 = load ptr, ptr %7, align 8, !tbaa !34
  %12 = zext nneg i32 %11 to i64
  %13 = getelementptr inbounds nuw i32, ptr %.val9, i64 %12
  %14 = load i32, ptr %13, align 4, !tbaa !35
  %15 = load ptr, ptr %3, align 8, !tbaa !87
  %16 = tail call i32 @Supp_ComputePair(ptr noundef nonnull %0, i32 noundef %14)
  %17 = getelementptr inbounds nuw i8, ptr %15, i64 4
  %18 = load i32, ptr %17, align 4, !tbaa !30
  %19 = load i32, ptr %15, align 8, !tbaa !33
  %20 = icmp eq i32 %18, %19
  br i1 %20, label %21, label %.Vec_IntGrow.exit10_crit_edge.i

.Vec_IntGrow.exit10_crit_edge.i:                  ; preds = %8
  %.phi.trans.insert.i = getelementptr inbounds nuw i8, ptr %15, i64 8
  %.pre.i = load ptr, ptr %.phi.trans.insert.i, align 8, !tbaa !34
  br label %Vec_IntPush.exit

21:                                               ; preds = %8
  %22 = icmp slt i32 %18, 16
  br i1 %22, label %23, label %31

23:                                               ; preds = %21
  %24 = getelementptr inbounds nuw i8, ptr %15, i64 8
  %25 = load ptr, ptr %24, align 8, !tbaa !34
  %.not9.i.i = icmp eq ptr %25, null
  br i1 %.not9.i.i, label %28, label %26

26:                                               ; preds = %23
  %27 = tail call dereferenceable_or_null(64) ptr @realloc(ptr noundef nonnull %25, i64 noundef 64) #30
  br label %Vec_IntGrow.exit.i

28:                                               ; preds = %23
  %29 = tail call noalias dereferenceable_or_null(64) ptr @malloc(i64 noundef 64) #31
  br label %Vec_IntGrow.exit.i

Vec_IntGrow.exit.i:                               ; preds = %28, %26
  %30 = phi ptr [ %27, %26 ], [ %29, %28 ]
  store ptr %30, ptr %24, align 8, !tbaa !34
  store i32 16, ptr %15, align 8, !tbaa !33
  br label %Vec_IntPush.exit

31:                                               ; preds = %21
  %32 = shl nuw nsw i32 %18, 1
  %33 = getelementptr inbounds nuw i8, ptr %15, i64 8
  %34 = load ptr, ptr %33, align 8, !tbaa !34
  %.not9.i9.i = icmp eq ptr %34, null
  %35 = zext nneg i32 %32 to i64
  %36 = shl nuw nsw i64 %35, 2
  br i1 %.not9.i9.i, label %39, label %37

37:                                               ; preds = %31
  %38 = tail call ptr @realloc(ptr noundef nonnull %34, i64 noundef %36) #30
  br label %41

39:                                               ; preds = %31
  %40 = tail call noalias ptr @malloc(i64 noundef %36) #31
  br label %41

41:                                               ; preds = %39, %37
  %42 = phi ptr [ %38, %37 ], [ %40, %39 ]
  store ptr %42, ptr %33, align 8, !tbaa !34
  store i32 %32, ptr %15, align 8, !tbaa !33
  br label %Vec_IntPush.exit

Vec_IntPush.exit:                                 ; preds = %.Vec_IntGrow.exit10_crit_edge.i, %Vec_IntGrow.exit.i, %41
  %43 = phi ptr [ %.pre.i, %.Vec_IntGrow.exit10_crit_edge.i ], [ %42, %41 ], [ %30, %Vec_IntGrow.exit.i ]
  %44 = load i32, ptr %17, align 4, !tbaa !30
  %45 = add nsw i32 %44, 1
  store i32 %45, ptr %17, align 4, !tbaa !30
  %46 = sext i32 %44 to i64
  %47 = getelementptr inbounds i32, ptr %43, i64 %46
  store i32 %16, ptr %47, align 4, !tbaa !35
  %48 = add nuw nsw i32 %.010, 1
  %exitcond.not = icmp eq i32 %48, 64
  br i1 %exitcond.not, label %49, label %8, !llvm.loop !134

49:                                               ; preds = %Vec_IntPush.exit
  %50 = load ptr, ptr %3, align 8, !tbaa !87
  ret ptr %50
}